target datalayout = "e-m:e-p270:32:32-p271:32:32-p272:64:64-i64:64-i128:128-f80:128-n8:16:32:64-S128"
target triple = "x86_64-pc-linux-gnu"

@proto_register_k12.ett = internal global [2 x ptr] [ptr @ett_k12, ptr @ett_port], align 16
@.str.26 = private unnamed_addr constant [6 x i8] c"K12xx\00", align 1
@.str.27 = private unnamed_addr constant [4 x i8] c"k12\00", align 1
@proto_k12 = internal global i32 0, align 4
@k12_handle = internal global ptr null, align 8
@.str.28 = private unnamed_addr constant [14 x i8] c"K12 Protocols\00", align 1
@.str.29 = private unnamed_addr constant [11 x i8] c"k12_protos\00", align 1
@k12_handles = internal global ptr null, align 8
@nk12_handles = internal global i32 0, align 4
@.str.30 = private unnamed_addr constant [22 x i8] c"ChK12ProtocolsSection\00", align 1
@k12_uat = internal global ptr null, align 8
@.str.31 = private unnamed_addr constant [7 x i8] c"config\00", align 1
@.str.32 = private unnamed_addr constant [4 x i8] c"cfg\00", align 1
@.str.33 = private unnamed_addr constant [61 x i8] c"A table of matches vs stack filenames and relative protocols\00", align 1
@port_handles = internal global ptr null, align 8

; Function Attrs: nounwind uwtable
define hidden void @proto_register_k12() #0 {
  %1 = alloca ptr, align 8
  %2 = alloca ptr, align 8
  %3 = call i32 @proto_register_protocol(ptr noundef @.str.26, ptr noundef @.str.26, ptr noundef @.str.27)
  store i32 %3, ptr @proto_k12, align 4
  %4 = load i32, ptr @proto_k12, align 4
  call void @proto_register_field_array(i32 noundef %4, ptr noundef @proto_register_k12.hf, i32 noundef 8)
  call void @proto_register_subtree_array(ptr noundef @proto_register_k12.ett, i32 noundef 2)
  %5 = load i32, ptr @proto_k12, align 4
  %6 = call ptr @expert_register_protocol(i32 noundef %5)
  store ptr %6, ptr %2, align 8
  %7 = load ptr, ptr %2, align 8
  call void @expert_register_field_array(ptr noundef %7, ptr noundef @proto_register_k12.ei, i32 noundef 2)
  %8 = load i32, ptr @proto_k12, align 4
  %9 = call ptr @register_dissector(ptr noundef @.str.27, ptr noundef @dissect_k12, i32 noundef %8)
  store ptr %9, ptr @k12_handle, align 8
  %10 = call ptr @uat_new(ptr noundef @.str.28, i64 noundef 24, ptr noundef @.str.29, i1 noundef zeroext true, ptr noundef @k12_handles, ptr noundef @nk12_handles, i32 noundef 1, ptr noundef @.str.30, ptr noundef @k12_copy_cb, ptr noundef @k12_update_cb, ptr noundef @k12_free_cb, ptr noundef null, ptr noundef null, ptr noundef @proto_register_k12.uat_k12_flds)
  store ptr %10, ptr @k12_uat, align 8
  %11 = load i32, ptr @proto_k12, align 4
  %12 = call ptr @prefs_register_protocol(i32 noundef %11, ptr noundef null)
  store ptr %12, ptr %1, align 8
  %13 = load ptr, ptr %1, align 8
  call void @prefs_register_obsolete_preference(ptr noundef %13, ptr noundef @.str.31)
  %14 = load ptr, ptr %1, align 8
  %15 = load ptr, ptr @k12_uat, align 8
  call void @prefs_register_uat_preference(ptr noundef %14, ptr noundef @.str.32, ptr noundef @.str.28, ptr noundef @.str.33, ptr noundef %15)
  %16 = call ptr @wmem_epan_scope()
  %17 = call ptr @wmem_file_scope()
  %18 = call noalias ptr @wmem_tree_new_autoreset(ptr noundef %16, ptr noundef %17)
  store ptr %18, ptr @port_handles, align 8
  ret void
}