; Function Attrs: nounwind uwtable
define hidden void @proto_register_k12() local_unnamed_addr #0 {
  %1 = tail call i32 @proto_register_protocol(ptr noundef nonnull @.str.26, ptr noundef nonnull @.str.26, ptr noundef nonnull @.str.27) #5
  store i32 %1, ptr @proto_k12, align 4
  tail call void @proto_register_field_array(i32 noundef %1, ptr noundef nonnull @proto_register_k12.hf, i32 noundef 8) #5
  tail call void @proto_register_subtree_array(ptr noundef nonnull @proto_register_k12.ett, i32 noundef 2) #5
  %2 = load i32, ptr @proto_k12, align 4
  %3 = tail call ptr @expert_register_protocol(i32 noundef %2) #5
  tail call void @expert_register_field_array(ptr noundef %3, ptr noundef nonnull @proto_register_k12.ei, i32 noundef 2) #5
  %4 = load i32, ptr @proto_k12, align 4
  %5 = tail call ptr @register_dissector(ptr noundef nonnull @.str.27, ptr noundef nonnull @dissect_k12, i32 noundef %4) #5
  store ptr %5, ptr @k12_handle, align 8
  %6 = tail call ptr @uat_new(ptr noundef nonnull @.str.28, i64 noundef 24, ptr noundef nonnull @.str.29, i1 noundef zeroext true, ptr noundef nonnull @k12_handles, ptr noundef nonnull @nk12_handles, i32 noundef 1, ptr noundef nonnull @.str.30, ptr noundef nonnull @k12_copy_cb, ptr noundef nonnull @k12_update_cb, ptr noundef nonnull @k12_free_cb, ptr noundef null, ptr noundef null, ptr noundef nonnull @proto_register_k12.uat_k12_flds) #5
  store ptr %6, ptr @k12_uat, align 8
  %7 = load i32, ptr @proto_k12, align 4
  %8 = tail call ptr @prefs_register_protocol(i32 noundef %7, ptr noundef null) #5
  tail call void @prefs_register_obsolete_preference(ptr noundef %8, ptr noundef nonnull @.str.31) #5
  %9 = load ptr, ptr @k12_uat, align 8
  tail call void @prefs_register_uat_preference(ptr noundef %8, ptr noundef nonnull @.str.32, ptr noundef nonnull @.str.28, ptr noundef nonnull @.str.33, ptr noundef %9) #5
  %10 = tail call ptr @wmem_epan_scope() #5
  %11 = tail call ptr @wmem_file_scope() #5
  %12 = tail call noalias ptr @wmem_tree_new_autoreset(ptr noundef %10, ptr noundef %11) #5
  store ptr %12, ptr @port_handles, align 8
  ret void
}